target datalayout = "e-m:e-p270:32:32-p271:32:32-p272:64:64-i64:64-i128:128-f80:128-n8:16:32:64-S128"
target triple = "x86_64-pc-linux-gnu"

%struct.nstime_t = type { i64, i32 }
%struct._address = type { i32, i32, ptr, ptr }
%struct.tcp_analysis = type { %struct._tcp_flow_t, %struct._tcp_flow_t, ptr, ptr, ptr, ptr, %struct.nstime_t, %struct.nstime_t, %struct.nstime_t, %struct.nstime_t, i32, i16, i8, ptr, i8, ptr, i32, i32, i32 }
%struct._tcp_flow_t = type { i8, i32, i32, i32, i16, i16, i16, i32, i32, i32, i8, i32, i32, ptr, i16, i32, i32, ptr, ptr, ptr, ptr }
%struct.mptcp_subflow = type { i8, i32, i8, ptr, ptr, ptr }
%struct._mptcp_meta_flow_t = type { i8, i8, i64, i64, i64, i8, i64, i32, i32, i64, i64, %struct._address, %struct._address, i32, i32 }
%struct.mptcp_analysis = type { i16, [2 x %struct._mptcp_meta_flow_t], i32, i8, ptr, ptr, i8 }

@mptcp_stream_count = internal global i32 0, align 4
@.str.4 = private unnamed_addr constant [29 x i8] c"%s:%u: failed assertion \22%s\22\00", align 1
@.str.5 = private unnamed_addr constant [29 x i8] c"epan/dissectors/packet-tcp.c\00", align 1
@.str.913 = private unnamed_addr constant [55 x i8] c"%s:%u: failed assertion \22DISSECTOR_ASSERT_NOT_REACHED\22\00", align 1
@.str.962 = private unnamed_addr constant [7 x i8] c"mptcpd\00", align 1
@mptcp_tokens = internal global ptr null, align 8
@.str.1070 = private unnamed_addr constant [26 x i8] c"tcpd->mptcp_analysis == 0\00", align 1
@.str.1072 = private unnamed_addr constant [47 x i8] c"tcp_flow == tcpd->fwd || tcp_flow == tcpd->rev\00", align 1
@.str.1073 = private unnamed_addr constant [30 x i8] c"tcp_flow->mptcp_subflow->meta\00", align 1

; Function Attrs: nounwind uwtable
define internal ptr @mptcp_alloc_analysis(ptr noundef %0) #0 {
  %2 = alloca ptr, align 8
  %3 = alloca ptr, align 8
  store ptr %0, ptr %2, align 8
  %4 = load ptr, ptr %2, align 8
  %5 = getelementptr inbounds %struct.tcp_analysis, ptr %4, i32 0, i32 13
  %6 = load ptr, ptr %5, align 8
  %7 = icmp eq ptr %6, null
  br i1 %7, label %8, label %9

8:                                                ; preds = %1
  br label %11

9:                                                ; preds = %1
  call void (ptr, ...) @proto_report_dissector_bug(ptr noundef @.str.4, ptr noundef @.str.5, i32 noundef 5865, ptr noundef @.str.1070) #12
  unreachable

10:                                               ; No predecessors!
  br label %11

11:                                               ; preds = %10, %8
  %12 = call ptr @wmem_file_scope()
  %13 = call noalias ptr @wmem_alloc0(ptr noundef %12, i64 noundef 296)
  store ptr %13, ptr %3, align 8
  %14 = call ptr @wmem_file_scope()
  %15 = call noalias ptr @wmem_list_new(ptr noundef %14)
  %16 = load ptr, ptr %3, align 8
  %17 = getelementptr inbounds %struct.mptcp_analysis, ptr %16, i32 0, i32 4
  store ptr %15, ptr %17, align 8
  %18 = load i32, ptr @mptcp_stream_count, align 4
  %19 = add i32 %18, 1
  store i32 %19, ptr @mptcp_stream_count, align 4
  %20 = load ptr, ptr %3, align 8
  %21 = getelementptr inbounds %struct.mptcp_analysis, ptr %20, i32 0, i32 2
  store i32 %18, ptr %21, align 8
  %22 = load ptr, ptr %3, align 8
  %23 = load ptr, ptr %2, align 8
  %24 = getelementptr inbounds %struct.tcp_analysis, ptr %23, i32 0, i32 13
  store ptr %22, ptr %24, align 8
  %25 = load ptr, ptr %3, align 8
  %26 = getelementptr inbounds %struct.mptcp_analysis, ptr %25, i32 0, i32 1
  call void @llvm.memset.p0.i64(ptr align 8 %26, i8 0, i64 256, i1 false)
  %27 = load ptr, ptr %3, align 8
  %28 = getelementptr inbounds %struct.mptcp_analysis, ptr %27, i32 0, i32 1
  %29 = getelementptr [2 x %struct._mptcp_meta_flow_t], ptr %28, i64 0, i64 0
  %30 = load ptr, ptr %2, align 8
  %31 = getelementptr inbounds %struct.tcp_analysis, ptr %30, i32 0, i32 2
  %32 = load ptr, ptr %31, align 8
  %33 = getelementptr inbounds %struct._tcp_flow_t, ptr %32, i32 0, i32 20
  %34 = load ptr, ptr %33, align 8
  %35 = getelementptr inbounds %struct.mptcp_subflow, ptr %34, i32 0, i32 5
  store ptr %29, ptr %35, align 8
  %36 = load ptr, ptr %3, align 8
  %37 = getelementptr inbounds %struct.mptcp_analysis, ptr %36, i32 0, i32 1
  %38 = getelementptr [2 x %struct._mptcp_meta_flow_t], ptr %37, i64 0, i64 1
  %39 = load ptr, ptr %2, align 8
  %40 = getelementptr inbounds %struct.tcp_analysis, ptr %39, i32 0, i32 3
  %41 = load ptr, ptr %40, align 8
  %42 = getelementptr inbounds %struct._tcp_flow_t, ptr %41, i32 0, i32 20
  %43 = load ptr, ptr %42, align 8
  %44 = getelementptr inbounds %struct.mptcp_subflow, ptr %43, i32 0, i32 5
  store ptr %38, ptr %44, align 8
  %45 = load ptr, ptr %3, align 8
  ret ptr %45
}

; Function Attrs: nounwind uwtable
define internal void @mptcp_attach_subflow(ptr noundef %0, ptr noundef %1) #0 {
  %3 = alloca ptr, align 8
  %4 = alloca ptr, align 8
  store ptr %0, ptr %3, align 8
  store ptr %1, ptr %4, align 8
  %5 = load ptr, ptr %3, align 8
  %6 = getelementptr inbounds %struct.mptcp_analysis, ptr %5, i32 0, i32 4
  %7 = load ptr, ptr %6, align 8
  %8 = load ptr, ptr %4, align 8
  %9 = call ptr @wmem_list_find(ptr noundef %7, ptr noundef %8)
  %10 = icmp ne ptr %9, null
  br i1 %10, label %16, label %11

11:                                               ; preds = %2
  %12 = load ptr, ptr %3, align 8
  %13 = getelementptr inbounds %struct.mptcp_analysis, ptr %12, i32 0, i32 4
  %14 = load ptr, ptr %13, align 8
  %15 = load ptr, ptr %4, align 8
  call void @wmem_list_prepend(ptr noundef %14, ptr noundef %15)
  br label %16

16:                                               ; preds = %11, %2
  %17 = load ptr, ptr %3, align 8
  %18 = load ptr, ptr %4, align 8
  %19 = getelementptr inbounds %struct.tcp_analysis, ptr %18, i32 0, i32 13
  store ptr %17, ptr %19, align 8
  ret void
}

; Function Attrs: nounwind uwtable
define internal ptr @mptcp_get_meta_from_token(ptr noundef %0, ptr noundef %1, i32 noundef %2) #0 {
  %4 = alloca ptr, align 8
  %5 = alloca ptr, align 8
  %6 = alloca ptr, align 8
  %7 = alloca i32, align 4
  %8 = alloca ptr, align 8
  %9 = alloca ptr, align 8
  %10 = alloca i8, align 1
  store ptr %0, ptr %5, align 8
  store ptr %1, ptr %6, align 8
  store i32 %2, ptr %7, align 4
  store ptr null, ptr %8, align 8
  %11 = load ptr, ptr %5, align 8
  %12 = getelementptr inbounds %struct.tcp_analysis, ptr %11, i32 0, i32 13
  %13 = load ptr, ptr %12, align 8
  store ptr %13, ptr %9, align 8
  store i8 0, ptr %10, align 1
  %14 = load ptr, ptr %6, align 8
  %15 = load ptr, ptr %5, align 8
  %16 = getelementptr inbounds %struct.tcp_analysis, ptr %15, i32 0, i32 2
  %17 = load ptr, ptr %16, align 8
  %18 = icmp eq ptr %14, %17
  br i1 %18, label %25, label %19

19:                                               ; preds = %3
  %20 = load ptr, ptr %6, align 8
  %21 = load ptr, ptr %5, align 8
  %22 = getelementptr inbounds %struct.tcp_analysis, ptr %21, i32 0, i32 3
  %23 = load ptr, ptr %22, align 8
  %24 = icmp eq ptr %20, %23
  br i1 %24, label %25, label %26

25:                                               ; preds = %19, %3
  br label %28

26:                                               ; preds = %19
  call void (ptr, ...) @proto_report_dissector_bug(ptr noundef @.str.4, ptr noundef @.str.5, i32 noundef 5891, ptr noundef @.str.1072) #12
  unreachable

27:                                               ; No predecessors!
  br label %28

28:                                               ; preds = %27, %25
  %29 = load ptr, ptr %6, align 8
  %30 = getelementptr inbounds %struct._tcp_flow_t, ptr %29, i32 0, i32 20
  %31 = load ptr, ptr %30, align 8
  %32 = getelementptr inbounds %struct.mptcp_subflow, ptr %31, i32 0, i32 5
  %33 = load ptr, ptr %32, align 8
  %34 = icmp ne ptr %33, null
  br i1 %34, label %35, label %48

35:                                               ; preds = %28
  %36 = load ptr, ptr %6, align 8
  %37 = getelementptr inbounds %struct._tcp_flow_t, ptr %36, i32 0, i32 20
  %38 = load ptr, ptr %37, align 8
  %39 = getelementptr inbounds %struct.mptcp_subflow, ptr %38, i32 0, i32 5
  %40 = load ptr, ptr %39, align 8
  %41 = getelementptr inbounds %struct._mptcp_meta_flow_t, ptr %40, i32 0, i32 0
  %42 = load i8, ptr %41, align 8
  %43 = zext i8 %42 to i32
  %44 = and i32 %43, 4
  %45 = icmp ne i32 %44, 0
  br i1 %45, label %46, label %48

46:                                               ; preds = %35
  %47 = load ptr, ptr %9, align 8
  store ptr %47, ptr %4, align 8
  br label %189

48:                                               ; preds = %35, %28
  %49 = load ptr, ptr @mptcp_tokens, align 8
  %50 = load i32, ptr %7, align 4
  %51 = call ptr @wmem_tree_lookup32(ptr noundef %49, i32 noundef %50)
  store ptr %51, ptr %8, align 8
  %52 = load ptr, ptr %8, align 8
  %53 = icmp ne ptr %52, null
  br i1 %53, label %54, label %58

54:                                               ; preds = %48
  %55 = load ptr, ptr %8, align 8
  store ptr %55, ptr %9, align 8
  %56 = load ptr, ptr %9, align 8
  %57 = load ptr, ptr %5, align 8
  call void @mptcp_attach_subflow(ptr noundef %56, ptr noundef %57)
  br label %129

58:                                               ; preds = %48
  %59 = load ptr, ptr %9, align 8
  %60 = icmp ne ptr %59, null
  br i1 %60, label %66, label %61

61:                                               ; preds = %58
  %62 = load ptr, ptr %5, align 8
  %63 = call ptr @mptcp_alloc_analysis(ptr noundef %62)
  store ptr %63, ptr %9, align 8
  %64 = load ptr, ptr %9, align 8
  %65 = load ptr, ptr %5, align 8
  call void @mptcp_attach_subflow(ptr noundef %64, ptr noundef %65)
  br label %98

66:                                               ; preds = %58
  %67 = load ptr, ptr %9, align 8
  %68 = getelementptr inbounds %struct.mptcp_analysis, ptr %67, i32 0, i32 1
  %69 = getelementptr [2 x %struct._mptcp_meta_flow_t], ptr %68, i64 0, i64 0
  %70 = getelementptr inbounds %struct._mptcp_meta_flow_t, ptr %69, i32 0, i32 0
  %71 = load i8, ptr %70, align 8
  %72 = zext i8 %71 to i32
  %73 = and i32 %72, 4
  %74 = icmp ne i32 %73, 0
  br i1 %74, label %75, label %76

75:                                               ; preds = %66
  store i8 1, ptr %10, align 1
  br label %88

76:                                               ; preds = %66
  %77 = load ptr, ptr %9, align 8
  %78 = getelementptr inbounds %struct.mptcp_analysis, ptr %77, i32 0, i32 1
  %79 = getelementptr [2 x %struct._mptcp_meta_flow_t], ptr %78, i64 0, i64 1
  %80 = getelementptr inbounds %struct._mptcp_meta_flow_t, ptr %79, i32 0, i32 0
  %81 = load i8, ptr %80, align 8
  %82 = zext i8 %81 to i32
  %83 = and i32 %82, 4
  %84 = icmp ne i32 %83, 0
  br i1 %84, label %85, label %86

85:                                               ; preds = %76
  store i8 0, ptr %10, align 1
  br label %87

86:                                               ; preds = %76
  call void (ptr, ...) @proto_report_dissector_bug(ptr noundef @.str.913, ptr noundef @.str.5, i32 noundef 5925) #12
  unreachable

87:                                               ; preds = %85
  br label %88

88:                                               ; preds = %87, %75
  %89 = load ptr, ptr %9, align 8
  %90 = getelementptr inbounds %struct.mptcp_analysis, ptr %89, i32 0, i32 1
  %91 = load i8, ptr %10, align 1
  %92 = zext i8 %91 to i64
  %93 = getelementptr [2 x %struct._mptcp_meta_flow_t], ptr %90, i64 0, i64 %92
  %94 = load ptr, ptr %6, align 8
  %95 = getelementptr inbounds %struct._tcp_flow_t, ptr %94, i32 0, i32 20
  %96 = load ptr, ptr %95, align 8
  %97 = getelementptr inbounds %struct.mptcp_subflow, ptr %96, i32 0, i32 5
  store ptr %93, ptr %97, align 8
  br label %98

98:                                               ; preds = %88, %61
  %99 = load ptr, ptr %6, align 8
  %100 = getelementptr inbounds %struct._tcp_flow_t, ptr %99, i32 0, i32 20
  %101 = load ptr, ptr %100, align 8
  %102 = getelementptr inbounds %struct.mptcp_subflow, ptr %101, i32 0, i32 5
  %103 = load ptr, ptr %102, align 8
  %104 = icmp ne ptr %103, null
  br i1 %104, label %105, label %106

105:                                              ; preds = %98
  br label %108

106:                                              ; preds = %98
  call void (ptr, ...) @proto_report_dissector_bug(ptr noundef @.str.4, ptr noundef @.str.5, i32 noundef 5929, ptr noundef @.str.1073) #12
  unreachable

107:                                              ; No predecessors!
  br label %108

108:                                              ; preds = %107, %105
  %109 = load i32, ptr %7, align 4
  %110 = load ptr, ptr %6, align 8
  %111 = getelementptr inbounds %struct._tcp_flow_t, ptr %110, i32 0, i32 20
  %112 = load ptr, ptr %111, align 8
  %113 = getelementptr inbounds %struct.mptcp_subflow, ptr %112, i32 0, i32 5
  %114 = load ptr, ptr %113, align 8
  %115 = getelementptr inbounds %struct._mptcp_meta_flow_t, ptr %114, i32 0, i32 7
  store i32 %109, ptr %115, align 8
  %116 = load ptr, ptr %6, align 8
  %117 = getelementptr inbounds %struct._tcp_flow_t, ptr %116, i32 0, i32 20
  %118 = load ptr, ptr %117, align 8
  %119 = getelementptr inbounds %struct.mptcp_subflow, ptr %118, i32 0, i32 5
  %120 = load ptr, ptr %119, align 8
  %121 = getelementptr inbounds %struct._mptcp_meta_flow_t, ptr %120, i32 0, i32 0
  %122 = load i8, ptr %121, align 8
  %123 = zext i8 %122 to i32
  %124 = or i32 %123, 4
  %125 = trunc i32 %124 to i8
  store i8 %125, ptr %121, align 8
  %126 = load ptr, ptr @mptcp_tokens, align 8
  %127 = load i32, ptr %7, align 4
  %128 = load ptr, ptr %9, align 8
  call void @wmem_tree_insert32(ptr noundef %126, i32 noundef %127, ptr noundef %128)
  br label %129

129:                                              ; preds = %108, %54
  %130 = load ptr, ptr %9, align 8
  %131 = icmp ne ptr %130, null
  br i1 %131, label %132, label %133

132:                                              ; preds = %129
  br label %135

133:                                              ; preds = %129
  call void (ptr, ...) @proto_report_dissector_bug(ptr noundef @.str.4, ptr noundef @.str.5, i32 noundef 5937, ptr noundef @.str.962) #12
  unreachable

134:                                              ; No predecessors!
  br label %135

135:                                              ; preds = %134, %132
  %136 = load ptr, ptr %6, align 8
  %137 = getelementptr inbounds %struct._tcp_flow_t, ptr %136, i32 0, i32 20
  %138 = load ptr, ptr %137, align 8
  %139 = getelementptr inbounds %struct.mptcp_subflow, ptr %138, i32 0, i32 5
  %140 = load ptr, ptr %139, align 8
  %141 = load ptr, ptr %9, align 8
  %142 = getelementptr inbounds %struct.mptcp_analysis, ptr %141, i32 0, i32 1
  %143 = getelementptr [2 x %struct._mptcp_meta_flow_t], ptr %142, i64 0, i64 0
  %144 = icmp eq ptr %140, %143
  %145 = select i1 %144, i32 0, i32 1
  %146 = trunc i32 %145 to i8
  store i8 %146, ptr %10, align 1
  %147 = load ptr, ptr %6, align 8
  %148 = load ptr, ptr %5, align 8
  %149 = getelementptr inbounds %struct.tcp_analysis, ptr %148, i32 0, i32 2
  %150 = load ptr, ptr %149, align 8
  %151 = icmp eq ptr %147, %150
  br i1 %151, label %152, label %155

152:                                              ; preds = %135
  %153 = load i8, ptr %10, align 1
  %154 = zext i8 %153 to i32
  br label %160

155:                                              ; preds = %135
  %156 = load i8, ptr %10, align 1
  %157 = zext i8 %156 to i32
  %158 = add i32 %157, 1
  %159 = srem i32 %158, 2
  br label %160

160:                                              ; preds = %155, %152
  %161 = phi i32 [ %154, %152 ], [ %159, %155 ]
  %162 = trunc i32 %161 to i8
  store i8 %162, ptr %10, align 1
  %163 = load ptr, ptr %9, align 8
  %164 = getelementptr inbounds %struct.mptcp_analysis, ptr %163, i32 0, i32 1
  %165 = load i8, ptr %10, align 1
  %166 = zext i8 %165 to i64
  %167 = getelementptr [2 x %struct._mptcp_meta_flow_t], ptr %164, i64 0, i64 %166
  %168 = load ptr, ptr %5, align 8
  %169 = getelementptr inbounds %struct.tcp_analysis, ptr %168, i32 0, i32 2
  %170 = load ptr, ptr %169, align 8
  %171 = getelementptr inbounds %struct._tcp_flow_t, ptr %170, i32 0, i32 20
  %172 = load ptr, ptr %171, align 8
  %173 = getelementptr inbounds %struct.mptcp_subflow, ptr %172, i32 0, i32 5
  store ptr %167, ptr %173, align 8
  %174 = load ptr, ptr %9, align 8
  %175 = getelementptr inbounds %struct.mptcp_analysis, ptr %174, i32 0, i32 1
  %176 = load i8, ptr %10, align 1
  %177 = zext i8 %176 to i32
  %178 = add i32 %177, 1
  %179 = srem i32 %178, 2
  %180 = sext i32 %179 to i64
  %181 = getelementptr [2 x %struct._mptcp_meta_flow_t], ptr %175, i64 0, i64 %180
  %182 = load ptr, ptr %5, align 8
  %183 = getelementptr inbounds %struct.tcp_analysis, ptr %182, i32 0, i32 3
  %184 = load ptr, ptr %183, align 8
  %185 = getelementptr inbounds %struct._tcp_flow_t, ptr %184, i32 0, i32 20
  %186 = load ptr, ptr %185, align 8
  %187 = getelementptr inbounds %struct.mptcp_subflow, ptr %186, i32 0, i32 5
  store ptr %181, ptr %187, align 8
  %188 = load ptr, ptr %9, align 8
  store ptr %188, ptr %4, align 8
  br label %189

189:                                              ; preds = %160, %46
  %190 = load ptr, ptr %4, align 8
  ret ptr %190
}