; Function Attrs: nounwind uwtable
define internal fastcc ptr @mptcp_get_meta_from_token(ptr noundef %0, ptr noundef readonly %1, i32 noundef %2) unnamed_addr #0 {
  %4 = getelementptr inbounds nuw i8, ptr %0, i64 312
  %5 = load ptr, ptr %4, align 8
  %6 = getelementptr inbounds nuw i8, ptr %0, i64 208
  %7 = load ptr, ptr %6, align 8
  %8 = icmp eq ptr %1, %7
  br i1 %8, label %14, label %9

9:                                                ; preds = %3
  %10 = getelementptr inbounds nuw i8, ptr %0, i64 216
  %11 = load ptr, ptr %10, align 8
  %12 = icmp eq ptr %1, %11
  br i1 %12, label %14, label %13

13:                                               ; preds = %9
  tail call void (ptr, ...) @proto_report_dissector_bug(ptr noundef nonnull @.str.4, ptr noundef nonnull @.str.5, i32 noundef 5891, ptr noundef nonnull @.str.1072) #22
  unreachable

14:                                               ; preds = %3, %9
  %15 = getelementptr inbounds nuw i8, ptr %1, i64 96
  %16 = load ptr, ptr %15, align 8
  %17 = getelementptr inbounds nuw i8, ptr %16, i64 32
  %18 = load ptr, ptr %17, align 8
  %.not = icmp eq ptr %18, null
  br i1 %.not, label %22, label %19

19:                                               ; preds = %14
  %20 = load i8, ptr %18, align 8
  %21 = and i8 %20, 4
  %.not49 = icmp eq i8 %21, 0
  br i1 %.not49, label %22, label %105

22:                                               ; preds = %19, %14
  %23 = load ptr, ptr @mptcp_tokens, align 8
  %24 = tail call ptr @wmem_tree_lookup32(ptr noundef %23, i32 noundef %2) #20
  %.not50 = icmp eq ptr %24, null
  br i1 %.not50, label %31, label %25

25:                                               ; preds = %22
  %26 = getelementptr inbounds nuw i8, ptr %24, i64 272
  %27 = load ptr, ptr %26, align 8
  %28 = tail call ptr @wmem_list_find(ptr noundef %27, ptr noundef nonnull %0) #20
  %.not.i = icmp eq ptr %28, null
  br i1 %.not.i, label %29, label %mptcp_attach_subflow.exit

29:                                               ; preds = %25
  %30 = load ptr, ptr %26, align 8
  tail call void @wmem_list_prepend(ptr noundef %30, ptr noundef nonnull %0) #20
  br label %mptcp_attach_subflow.exit

mptcp_attach_subflow.exit:                        ; preds = %25, %29
  store ptr %24, ptr %4, align 8
  br label %85

31:                                               ; preds = %22
  %.not51 = icmp eq ptr %5, null
  br i1 %.not51, label %32, label %59

32:                                               ; preds = %31
  %33 = load ptr, ptr %4, align 8
  %34 = icmp eq ptr %33, null
  br i1 %34, label %mptcp_alloc_analysis.exit, label %35

35:                                               ; preds = %32
  tail call void (ptr, ...) @proto_report_dissector_bug(ptr noundef nonnull @.str.4, ptr noundef nonnull @.str.5, i32 noundef 5865, ptr noundef nonnull @.str.1070) #22
  unreachable

mptcp_alloc_analysis.exit:                        ; preds = %32
  %36 = tail call ptr @wmem_file_scope() #20
  %37 = tail call noalias ptr @wmem_alloc0(ptr noundef %36, i64 noundef 296) #20
  %38 = tail call ptr @wmem_file_scope() #20
  %39 = tail call noalias ptr @wmem_list_new(ptr noundef %38) #20
  %40 = getelementptr inbounds nuw i8, ptr %37, i64 272
  store ptr %39, ptr %40, align 8
  %41 = load i32, ptr @mptcp_stream_count, align 4
  %42 = add i32 %41, 1
  store i32 %42, ptr @mptcp_stream_count, align 4
  %43 = getelementptr inbounds nuw i8, ptr %37, i64 264
  store i32 %41, ptr %43, align 8
  store ptr %37, ptr %4, align 8
  %44 = getelementptr inbounds nuw i8, ptr %37, i64 8
  tail call void @llvm.memset.p0.i64(ptr noundef nonnull align 8 dereferenceable(256) %44, i8 0, i64 256, i1 false)
  %45 = load ptr, ptr %6, align 8
  %46 = getelementptr inbounds nuw i8, ptr %45, i64 96
  %47 = load ptr, ptr %46, align 8
  %48 = getelementptr inbounds nuw i8, ptr %47, i64 32
  store ptr %44, ptr %48, align 8
  %49 = getelementptr i8, ptr %37, i64 136
  %50 = getelementptr inbounds nuw i8, ptr %0, i64 216
  %51 = load ptr, ptr %50, align 8
  %52 = getelementptr inbounds nuw i8, ptr %51, i64 96
  %53 = load ptr, ptr %52, align 8
  %54 = getelementptr inbounds nuw i8, ptr %53, i64 32
  store ptr %49, ptr %54, align 8
  %55 = load ptr, ptr %40, align 8
  %56 = tail call ptr @wmem_list_find(ptr noundef %55, ptr noundef nonnull %0) #20
  %.not.i56 = icmp eq ptr %56, null
  br i1 %.not.i56, label %57, label %mptcp_attach_subflow.exit57

57:                                               ; preds = %mptcp_alloc_analysis.exit
  %58 = load ptr, ptr %40, align 8
  tail call void @wmem_list_prepend(ptr noundef %58, ptr noundef nonnull %0) #20
  br label %mptcp_attach_subflow.exit57

mptcp_attach_subflow.exit57:                      ; preds = %mptcp_alloc_analysis.exit, %57
  store ptr %37, ptr %4, align 8
  br label %72

59:                                               ; preds = %31
  %60 = getelementptr inbounds nuw i8, ptr %5, i64 8
  %61 = load i8, ptr %60, align 8
  %62 = and i8 %61, 4
  %.not52 = icmp eq i8 %62, 0
  br i1 %.not52, label %63, label %68

63:                                               ; preds = %59
  %64 = getelementptr i8, ptr %5, i64 136
  %65 = load i8, ptr %64, align 8
  %66 = and i8 %65, 4
  %.not53 = icmp eq i8 %66, 0
  br i1 %.not53, label %67, label %68

67:                                               ; preds = %63
  tail call void (ptr, ...) @proto_report_dissector_bug(ptr noundef nonnull @.str.913, ptr noundef nonnull @.str.5, i32 noundef 5925) #22
  unreachable

68:                                               ; preds = %63, %59
  %.0 = phi i64 [ 1, %59 ], [ 0, %63 ]
  %69 = getelementptr [2 x %struct._mptcp_meta_flow_t], ptr %60, i64 0, i64 %.0
  %70 = load ptr, ptr %15, align 8
  %71 = getelementptr inbounds nuw i8, ptr %70, i64 32
  store ptr %69, ptr %71, align 8
  br label %72

72:                                               ; preds = %68, %mptcp_attach_subflow.exit57
  %.1 = phi ptr [ %5, %68 ], [ %37, %mptcp_attach_subflow.exit57 ]
  %73 = load ptr, ptr %15, align 8
  %74 = getelementptr inbounds nuw i8, ptr %73, i64 32
  %75 = load ptr, ptr %74, align 8
  %.not54 = icmp eq ptr %75, null
  br i1 %.not54, label %76, label %77

76:                                               ; preds = %72
  tail call void (ptr, ...) @proto_report_dissector_bug(ptr noundef nonnull @.str.4, ptr noundef nonnull @.str.5, i32 noundef 5929, ptr noundef nonnull @.str.1073) #22
  unreachable

77:                                               ; preds = %72
  %78 = getelementptr inbounds nuw i8, ptr %75, i64 48
  store i32 %2, ptr %78, align 8
  %79 = load ptr, ptr %15, align 8
  %80 = getelementptr inbounds nuw i8, ptr %79, i64 32
  %81 = load ptr, ptr %80, align 8
  %82 = load i8, ptr %81, align 8
  %83 = or i8 %82, 4
  store i8 %83, ptr %81, align 8
  %84 = load ptr, ptr @mptcp_tokens, align 8
  tail call void @wmem_tree_insert32(ptr noundef %84, i32 noundef %2, ptr noundef nonnull %.1) #20
  br label %85

85:                                               ; preds = %mptcp_attach_subflow.exit, %77
  %.042 = phi ptr [ %24, %mptcp_attach_subflow.exit ], [ %.1, %77 ]
  %86 = load ptr, ptr %15, align 8
  %87 = getelementptr inbounds nuw i8, ptr %86, i64 32
  %88 = load ptr, ptr %87, align 8
  %89 = getelementptr inbounds nuw i8, ptr %.042, i64 8
  %90 = icmp ne ptr %88, %89
  %91 = load ptr, ptr %6, align 8
  %92 = icmp ne ptr %1, %91
  %spec.select = xor i1 %90, %92
  %93 = zext i1 %spec.select to i64
  %94 = getelementptr [2 x %struct._mptcp_meta_flow_t], ptr %89, i64 0, i64 %93
  %95 = getelementptr inbounds nuw i8, ptr %91, i64 96
  %96 = load ptr, ptr %95, align 8
  %97 = getelementptr inbounds nuw i8, ptr %96, i64 32
  store ptr %94, ptr %97, align 8
  %not..in = xor i1 %spec.select, true
  %98 = zext i1 %not..in to i64
  %99 = getelementptr [2 x %struct._mptcp_meta_flow_t], ptr %89, i64 0, i64 %98
  %100 = getelementptr inbounds nuw i8, ptr %0, i64 216
  %101 = load ptr, ptr %100, align 8
  %102 = getelementptr inbounds nuw i8, ptr %101, i64 96
  %103 = load ptr, ptr %102, align 8
  %104 = getelementptr inbounds nuw i8, ptr %103, i64 32
  store ptr %99, ptr %104, align 8
  br label %105

105:                                              ; preds = %19, %85
  %.043 = phi ptr [ %.042, %85 ], [ %5, %19 ]
  ret ptr %.043
}